target datalayout = "e-m:e-p270:32:32-p271:32:32-p272:64:64-i64:64-i128:128-f80:128-n8:16:32:64-S128"
target triple = "x86_64-pc-linux-gnu"

%struct._lv_spinbox_t = type { %struct._lv_textarea_t, i32, i32, i32, i32, i16 }
%struct._lv_textarea_t = type { %struct._lv_obj_t, ptr, ptr, ptr, ptr, ptr, i32, i32, %struct.anon, i32, i32, i8 }
%struct._lv_obj_t = type { ptr, ptr, ptr, ptr, ptr, %struct.lv_area_t, i32, i16, i16 }
%struct.lv_area_t = type { i32, i32, i32, i32 }
%struct.anon = type { i32, i32, %struct.lv_area_t, i32, i8 }

; Function Attrs: nounwind uwtable
define void @lv_spinbox_set_digit_format(ptr noundef %0, i32 noundef %1, i32 noundef %2) #0 {
  %4 = alloca ptr, align 8
  %5 = alloca i32, align 4
  %6 = alloca i32, align 4
  %7 = alloca ptr, align 8
  %8 = alloca i64, align 8
  store ptr %0, ptr %4, align 8, !tbaa !3
  store i32 %1, ptr %5, align 4, !tbaa !18
  store i32 %2, ptr %6, align 4, !tbaa !18
  br label %9

9:                                                ; preds = %3
  br label %10

10:                                               ; preds = %9
  call void @llvm.lifetime.start.p0(i64 8, ptr %7) #4
  %11 = load ptr, ptr %4, align 8, !tbaa !3
  store ptr %11, ptr %7, align 8, !tbaa !3
  %12 = load i32, ptr %5, align 4, !tbaa !18
  %13 = icmp ugt i32 %12, 10
  br i1 %13, label %14, label %15

14:                                               ; preds = %10
  store i32 10, ptr %5, align 4, !tbaa !18
  br label %15

15:                                               ; preds = %14, %10
  %16 = load i32, ptr %6, align 4, !tbaa !18
  %17 = load i32, ptr %5, align 4, !tbaa !18
  %18 = icmp uge i32 %16, %17
  br i1 %18, label %19, label %20

19:                                               ; preds = %15
  store i32 0, ptr %6, align 4, !tbaa !18
  br label %20

20:                                               ; preds = %19, %15
  %21 = load i32, ptr %5, align 4, !tbaa !18
  %22 = icmp ult i32 %21, 10
  br i1 %22, label %23, label %57

23:                                               ; preds = %20
  call void @llvm.lifetime.start.p0(i64 8, ptr %8) #4
  %24 = load i32, ptr %5, align 4, !tbaa !18
  %25 = trunc i32 %24 to i8
  %26 = call i64 @lv_pow(i64 noundef 10, i8 noundef signext %25)
  store i64 %26, ptr %8, align 8, !tbaa !19
  %27 = load ptr, ptr %7, align 8, !tbaa !3
  %28 = getelementptr inbounds nuw %struct._lv_spinbox_t, ptr %27, i32 0, i32 2
  %29 = load i32, ptr %28, align 4, !tbaa !16
  %30 = sext i32 %29 to i64
  %31 = load i64, ptr %8, align 8, !tbaa !19
  %32 = sub nsw i64 %31, 1
  %33 = icmp sgt i64 %30, %32
  br i1 %33, label %34, label %40

34:                                               ; preds = %23
  %35 = load i64, ptr %8, align 8, !tbaa !19
  %36 = sub nsw i64 %35, 1
  %37 = trunc i64 %36 to i32
  %38 = load ptr, ptr %7, align 8, !tbaa !3
  %39 = getelementptr inbounds nuw %struct._lv_spinbox_t, ptr %38, i32 0, i32 2
  store i32 %37, ptr %39, align 4, !tbaa !16
  br label %40

40:                                               ; preds = %34, %23
  %41 = load ptr, ptr %7, align 8, !tbaa !3
  %42 = getelementptr inbounds nuw %struct._lv_spinbox_t, ptr %41, i32 0, i32 3
  %43 = load i32, ptr %42, align 8, !tbaa !17
  %44 = sext i32 %43 to i64
  %45 = load i64, ptr %8, align 8, !tbaa !19
  %46 = sub nsw i64 0, %45
  %47 = add nsw i64 %46, 1
  %48 = icmp slt i64 %44, %47
  br i1 %48, label %49, label %56

49:                                               ; preds = %40
  %50 = load i64, ptr %8, align 8, !tbaa !19
  %51 = sub nsw i64 0, %50
  %52 = add nsw i64 %51, 1
  %53 = trunc i64 %52 to i32
  %54 = load ptr, ptr %7, align 8, !tbaa !3
  %55 = getelementptr inbounds nuw %struct._lv_spinbox_t, ptr %54, i32 0, i32 3
  store i32 %53, ptr %55, align 8, !tbaa !17
  br label %56

56:                                               ; preds = %49, %40
  call void @llvm.lifetime.end.p0(i64 8, ptr %8) #4
  br label %57

57:                                               ; preds = %56, %20
  %58 = load i32, ptr %5, align 4, !tbaa !18
  %59 = load ptr, ptr %7, align 8, !tbaa !3
  %60 = getelementptr inbounds nuw %struct._lv_spinbox_t, ptr %59, i32 0, i32 5
  %61 = trunc i32 %58 to i16
  %62 = load i16, ptr %60, align 8
  %63 = and i16 %61, 15
  %64 = and i16 %62, -16
  %65 = or i16 %64, %63
  store i16 %65, ptr %60, align 8
  %66 = load i32, ptr %6, align 4, !tbaa !18
  %67 = load ptr, ptr %7, align 8, !tbaa !3
  %68 = getelementptr inbounds nuw %struct._lv_spinbox_t, ptr %67, i32 0, i32 5
  %69 = trunc i32 %66 to i16
  %70 = load i16, ptr %68, align 8
  %71 = and i16 %69, 15
  %72 = shl i16 %71, 4
  %73 = and i16 %70, -241
  %74 = or i16 %73, %72
  store i16 %74, ptr %68, align 8
  %75 = load ptr, ptr %4, align 8, !tbaa !3
  call void @lv_spinbox_updatevalue(ptr noundef %75)
  call void @llvm.lifetime.end.p0(i64 8, ptr %7) #4
  ret void
}