; Function Attrs: nounwind uwtable
define void @lv_spinbox_set_digit_format(ptr noundef %0, i32 noundef %1, i32 noundef %2) local_unnamed_addr #0 {
  %spec.store.select1 = tail call i32 @llvm.umin.i32(i32 %1, i32 10)
  %4 = icmp ult i32 %1, 10
  br i1 %4, label %5, label %22

5:                                                ; preds = %3
  %6 = trunc nuw nsw i32 %spec.store.select1 to i8
  %7 = tail call i64 @lv_pow(i64 noundef 10, i8 noundef signext %6) #7
  %8 = getelementptr inbounds nuw i8, ptr %0, i64 164
  %9 = load i32, ptr %8, align 4, !tbaa !15
  %10 = sext i32 %9 to i64
  %.not20 = icmp sgt i64 %7, %10
  br i1 %.not20, label %14, label %11

11:                                               ; preds = %5
  %12 = trunc i64 %7 to i32
  %13 = add i32 %12, -1
  store i32 %13, ptr %8, align 4, !tbaa !15
  br label %14

14:                                               ; preds = %11, %5
  %15 = getelementptr inbounds nuw i8, ptr %0, i64 168
  %16 = load i32, ptr %15, align 8, !tbaa !16
  %17 = sext i32 %16 to i64
  %18 = sub i64 1, %7
  %19 = icmp sgt i64 %18, %17
  br i1 %19, label %20, label %22

20:                                               ; preds = %14
  %21 = trunc i64 %18 to i32
  store i32 %21, ptr %15, align 8, !tbaa !16
  br label %22

22:                                               ; preds = %14, %20, %3
  %.not = icmp ult i32 %2, %spec.store.select1
  %23 = trunc i32 %2 to i16
  %24 = getelementptr inbounds nuw i8, ptr %0, i64 176
  %25 = trunc nuw nsw i32 %spec.store.select1 to i16
  %26 = load i16, ptr %24, align 8
  %27 = and i16 %26, -256
  %28 = shl i16 %23, 4
  %29 = and i16 %28, 240
  %30 = select i1 %.not, i16 %29, i16 0
  %31 = or disjoint i16 %30, %25
  %32 = or disjoint i16 %31, %27
  store i16 %32, ptr %24, align 8
  tail call fastcc void @lv_spinbox_updatevalue(ptr noundef %0)
  ret void
}